(lp0
(dp1
S'index'
p2
I0
sS'length'
p3
I6
sS'name'
p4
V!
p5
sa(dp6
g2
I6
sg3
I20
sg4
VA
p7
sa(dp8
g2
I26
sg3
I3
sg4
VB
p9
sa(dp10
g2
I29
sg3
I46
sg4
VC
p11
sa(dp12
g2
I75
sg3
I14
sg4
VD
p13
sa(dp14
g2
I89
sg3
I3
sg4
VE
p15
sa(dp16
g2
I92
sg3
I10
sg4
VF
p17
sa(dp18
g2
I102
sg3
I32
sg4
VG
p19
sa(dp20
g2
I134
sg3
I4
sg4
VH
p21
sa(dp22
g2
I138
sg3
I46
sg4
VI
p23
sa(dp24
g2
I184
sg3
I4
sg4
VL
p25
sa(dp26
g2
I188
sg3
I60
sg4
VM
p27
sa(dp28
g2
I248
sg3
I4
sg4
VO
p29
sa(dp30
g2
I252
sg3
I79
sg4
VP
p31
sa(dp32
g2
I331
sg3
I1
sg4
VQ
p33
sa(dp34
g2
I332
sg3
I7
sg4
VR
p35
sa(dp36
g2
I339
sg3
I5
sg4
VS
p37
sa(dp38
g2
I344
sg3
I10
sg4
VT
p39
sa(dp40
g2
I354
sg3
I1
sg4
VU
p41
sa(dp42
g2
I355
sg3
I3
sg4
VV
p43
sa(dp44
g2
I358
sg3
I10
sg4
VW
p45
sa(dp46
g2
I368
sg3
I3
sg4
V_
p47
sa(dp48
g2
I371
sg3
I6
sg4
Va
p49
sa(dp50
g2
I377
sg3
I4
sg4
Vb
p51
sa(dp52
g2
I381
sg3
I7
sg4
Vc
p53
sa(dp54
g2
I388
sg3
I40
sg4
Vd
p55
sa(dp56
g2
I428
sg3
I7
sg4
Ve
p57
sa(dp58
g2
I435
sg3
I3
sg4
Vf
p59
sa(dp60
g2
I438
sg3
I19
sg4
Vg
p61
sa(dp62
g2
I457
sg3
I1
sg4
Vh
p63
sa(dp64
g2
I458
sg3
I6
sg4
Vi
p65
sa(dp66
g2
I464
sg3
I1
sg4
Vl
p67
sa(dp68
g2
I465
sg3
I24
sg4
Vm
p69
sa(dp70
g2
I489
sg3
I3
sg4
Vn
p71
sa(dp72
g2
I492
sg3
I52
sg4
Vp
p73
sa(dp74
g2
I544
sg3
I24
sg4
Vr
p75
sa(dp76
g2
I568
sg3
I30
sg4
Vs
p77
sa(dp78
g2
I598
sg3
I3
sg4
Vt
p79
sa(dp80
g2
I601
sg3
I2
sg4
Vv
p81
sa(dp82
g2
I603
sg3
I32
sg4
Vw
p83
sa(dp84
g2
I635
sg3
I3
sg4
Vx
p85
sa(dp86
g2
I638
sg3
I3
sg4
Vy
p87
sa.