(lp0
(V!_TAG_FILE_FORMAT
p1
g1
tp2
a(V!_TAG_FILE_SORTED
p3
g3
tp4
a(V!_TAG_PROGRAM_AUTHOR
p5
g5
tp6
a(V!_TAG_PROGRAM_NAME
p7
g7
tp8
a(V!_TAG_PROGRAM_URL
p9
g9
tp10
a(V!_TAG_PROGRAM_VERSION
p11
g11
tp12
a(VAC1
p13
g13
tp14
a(VAC2
p15
g15
tp16
a(VAC3
p17
g17
tp18
a(VAC4
p19
g19
tp20
a(VAC5
p21
g21
tp22
a(VAC6
p23
g23
tp24
a(VADS1115_DR_128
p25
g25
tp26
a(VADS1115_DR_16
p27
g27
tp28
a(VADS1115_DR_250
p29
g29
tp30
a(VADS1115_DR_32
p31
g31
tp32
a(VADS1115_DR_475
p33
g33
tp34
a(VADS1115_DR_64
p35
g35
tp36
a(VADS1115_DR_8
p37
g37
tp38
a(VADS1115_DR_860
p39
g39
tp40
a(VADS1115_GAIN_1
p41
g41
tp42
a(VADS1115_GAIN_2
p43
g43
tp44
a(VADS1115_GAIN_4
p45
g45
tp46
a(VADS1115_GAIN_6
p47
g47
tp48
a(VADS1115_GAIN_HALF
p49
g49
tp50
a(VADS1115_GAIN_QUARTER
p51
g51
tp52
a(VBCM_PASSWORD
p53
g53
tp54
a(VBLOCK_SIZE
p55
g55
tp56
a(VBMP180_OSS
p57
g57
tp58
a(VCC
p59
g59
tp60
a(VCFLAGS
p61
g61
tp62
a(VCMD_READ
p63
g63
tp64
a(VCMD_WRITE
p65
g65
tp66
a(VCONFIG_CLAT_LATCH
p67
g67
tp68
a(VCONFIG_CLAT_MASK
p69
g69
tp70
a(VCONFIG_CLAT_NONLAT
p71
g71
tp72
a(VCONFIG_CMODE_MASK
p73
g73
tp74
a(VCONFIG_CMODE_TRAD
p75
g75
tp76
a(VCONFIG_CMODE_WINDOW
p77
g77
tp78
a(VCONFIG_CPOL_ACTVHI
p79
g79
tp80
a(VCONFIG_CPOL_ACTVLOW
p81
g81
tp82
a(VCONFIG_CPOL_MASK
p83
g83
tp84
a(VCONFIG_CQUE_1CONV
p85
g85
tp86
a(VCONFIG_CQUE_2CONV
p87
g87
tp88
a(VCONFIG_CQUE_4CONV
p89
g89
tp90
a(VCONFIG_CQUE_MASK
p91
g91
tp92
a(VCONFIG_CQUE_NONE
p93
g93
tp94
a(VCONFIG_DEFAULT
p95
g95
tp96
a(VCONFIG_DR_128SPS
p97
g97
tp98
a(VCONFIG_DR_16SPS
p99
g99
tp100
a(VCONFIG_DR_32SPS
p101
g101
tp102
a(VCONFIG_DR_475SPS
p103
g103
tp104
a(VCONFIG_DR_64SPS
p105
g105
tp106
a(VCONFIG_DR_860SPS
p107
g107
tp108
a(VCONFIG_DR_8SPS
p109
g109
tp110
a(VCONFIG_DR_MASK
p111
g111
tp112
a(VCONFIG_MODE
p113
g113
tp114
a(VCONFIG_MUX_DIFF_0_1
p115
g115
tp116
a(VCONFIG_MUX_DIFF_0_3
p117
g117
tp118
a(VCONFIG_MUX_DIFF_1_3
p119
g119
tp120
a(VCONFIG_MUX_DIFF_2_3
p121
g121
tp122
a(VCONFIG_MUX_MASK
p123
g123
tp124
a(VCONFIG_MUX_SINGLE_0
p125
g125
tp126
a(VCONFIG_MUX_SINGLE_1
p127
g127
tp128
a(VCONFIG_MUX_SINGLE_2
p129
g129
tp130
a(VCONFIG_MUX_SINGLE_3
p131
g131
tp132
a(VCONFIG_OS_MASK
p133
g133
tp134
a(VCONFIG_OS_SINGLE
p135
g135
tp136
a(VCONFIG_PGA_0_256V
p137
g137
tp138
a(VCONFIG_PGA_0_512V
p139
g139
tp140
a(VCONFIG_PGA_1_024V
p141
g141
tp142
a(VCONFIG_PGA_2_048V
p143
g143
tp144
a(VCONFIG_PGA_4_096V
p145
g145
tp146
a(VCONFIG_PGA_6_144V
p147
g147
tp148
a(VCONFIG_PGA_MASK
p149
g149
tp150
a(VDEBUG
p151
g151
tp152
a(VDEFS
p153
g153
tp154
a(VDEFVALA
p155
g155
tp156
a(VDEFVALB
p157
g157
tp158
a(VDESTDIR
p159
g159
tp160
a(VDRV_TYPE_IO_1V8_3V0_AUTO
p161
g161
tp162
a(VDRV_TYPE_IO_1V8_ONLY
p163
g163
tp164
a(VDRV_TYPE_IO_1V8_OR_3V0
p165
g165
tp166
a(VDRV_TYPE_IO_3V3_ONLY
p167
g167
tp168
a(VDRV_TYPE_IO_DEFAULT
p169
g169
tp170
a(VDRV_TYPE_IO_NARROW_LEVEL
p171
g171
tp172
a(VDRV_TYPE_IO_WIDE_LEVEL
p173
g173
tp174
a(VDRV_TYPE_MAX
p175
g175
tp176
a(VDYNAMIC
p177
g177
tp178
a(VENV_CODES
p179
g179
tp180
a(VENV_DEBUG
p181
g181
tp182
a(VENV_GPIOMEM
p183
g183
tp184
a(VFAKE_SENSOR
p185
g185
tp186
a(VFALSE
p187
g187
tp188
a(VFSEL_ALT0
p189
g189
tp190
a(VFSEL_ALT1
p191
g191
tp192
a(VFSEL_ALT2
p193
g193
tp194
a(VFSEL_ALT3
p195
g195
tp196
a(VFSEL_ALT4
p197
g197
tp198
a(VFSEL_ALT5
p199
g199
tp200
a(VFSEL_INPT
p201
g201
tp202
a(VFSEL_OUTP
p203
g203
tp204
a(VGPINTENA
p205
g205
tp206
a(VGPINTENB
p207
g207
tp208
a(VGPIOA
p209
g209
tp210
a(VGPIOB
p211
g211
tp212
a(VGPIO_BASE
p213
g213
tp214
a(VGPIO_CLOCK
p215
g215
tp216
a(VGPIO_CLOCK_BASE
p217
g217
tp218
a(VGPIO_CLOCK_SOURCE
p219
g219
tp220
a(VGPIO_DEBOUNCE
p221
g221
tp222
a(VGPIO_EXT_PORT
p223
g223
tp224
a(VGPIO_INTEN
p225
g225
tp226
a(VGPIO_INTMASK
p227
g227
tp228
a(VGPIO_INTTYPE_LEVEL
p229
g229
tp230
a(VGPIO_INT_POLARITY
p231
g231
tp232
a(VGPIO_INT_RAWSTATUS
p233
g233
tp234
a(VGPIO_INT_STATUS
p235
g235
tp236
a(VGPIO_LAYOUT_FIREFLY_RK3399
p237
g237
tp238
a(VGPIO_LS_SYNC
p239
g239
tp240
a(VGPIO_PADS
p241
g241
tp242
a(VGPIO_PERI_BASE_NEW
p243
g243
tp244
a(VGPIO_PERI_BASE_OLD
p245
g245
tp246
a(VGPIO_PORTS_EOI
p247
g247
tp248
a(VGPIO_PWM
p249
g249
tp250
a(VGPIO_SWPORT_DDR
p251
g251
tp252
a(VGPIO_SWPORT_DR
p253
g253
tp254
a(VGPIO_TIMER
p255
g255
tp256
a(VGPPUA
p257
g257
tp258
a(VGPPUB
p259
g259
tp260
a(VGPPUD
p261
g261
tp262
a(VGRFBASE_RK3399
p263
g263
tp264
a(VGRFDRVOFFSET_RK3399
p265
g265
tp266
a(VGRFMUXOFFSET_RK3399
p267
g267
tp268
a(VHARDWARE_FIREFLY_RK3399
p269
g269
tp270
a(VHARDWARE_RASPBERRYPI
p271
g271
tp272
a(VHEADERS
p273
g273
tp274
a(VHIGH
p275
g275
tp276
a(VI2C_ADDRESS
p277
g277
tp278
a(VI2C_SLAVE
p279
g279
tp280
a(VI2C_SMBUS
p281
g281
tp282
a(VI2C_SMBUS_BLOCK_DATA
p283
g283
tp284
a(VI2C_SMBUS_BLOCK_MAX
p285
g285
tp286
a(VI2C_SMBUS_BLOCK_PROC_CALL
p287
g287
tp288
a(VI2C_SMBUS_BYTE
p289
g289
tp290
a(VI2C_SMBUS_BYTE_DATA
p291
g291
tp292
a(VI2C_SMBUS_I2C_BLOCK_BROKEN
p293
g293
tp294
a(VI2C_SMBUS_I2C_BLOCK_DATA
p295
g295
tp296
a(VI2C_SMBUS_I2C_BLOCK_MAX
p297
g297
tp298
a(VI2C_SMBUS_PROC_CALL
p299
g299
tp300
a(VI2C_SMBUS_QUICK
p301
g301
tp302
a(VI2C_SMBUS_READ
p303
g303
tp304
a(VI2C_SMBUS_WORD_DATA
p305
g305
tp306
a(VI2C_SMBUS_WRITE
p307
g307
tp308
a(VINCLUDE
p309
g309
tp310
a(VINPUT
p311
g311
tp312
a(VINTCAPA
p313
g313
tp314
a(VINTCAPB
p315
g315
tp316
a(VINTCONA
p317
g317
tp318
a(VINTCONB
p319
g319
tp320
a(VINTFA
p321
g321
tp322
a(VINTFB
p323
g323
tp324
a(VINT_EDGE_BOTH
p325
g325
tp326
a(VINT_EDGE_FALLING
p327
g327
tp328
a(VINT_EDGE_RISING
p329
g329
tp330
a(VINT_EDGE_SETUP
p331
g331
tp332
a(VIOCON
p333
g333
tp334
a(VIOCONB
p335
g335
tp336
a(VIOCON_BANK_MODE
p337
g337
tp338
a(VIOCON_DISSLW
p339
g339
tp340
a(VIOCON_HAEN
p341
g341
tp342
a(VIOCON_IARES
p343
g343
tp344
a(VIOCON_INIT
p345
g345
tp346
a(VIOCON_INTPOL
p347
g347
tp348
a(VIOCON_MIRROR
p349
g349
tp350
a(VIOCON_ODR
p351
g351
tp352
a(VIOCON_SEQOP
p353
g353
tp354
a(VIOCON_UNUSED
p355
g355
tp356
a(VIODIRA
p357
g357
tp358
a(VIODIRB
p359
g359
tp360
a(VIOMUX_WIDTH_2BIT
p361
g361
tp362
a(VIOMUX_WIDTH_4BIT
p363
g363
tp364
a(VIPOLA
p365
g365
tp366
a(VIPOLB
p367
g367
tp368
a(VLDCONFIG
p369
g369
tp370
a(VLIBS
p371
g371
tp372
a(VLOW
p373
g373
tp374
a(VLSBFIRST
p375
g375
tp376
a(VMAX_PINS
p377
g377
tp378
a(VMAX_SERVOS
p379
g379
tp380
a(VMB
p381
g381
tp382
a(VMC
p383
g383
tp384
a(VMCP23016_GP0
p385
g385
tp386
a(VMCP23016_GP1
p387
g387
tp388
a(VMCP23016_INTCAP0
p389
g389
tp390
a(VMCP23016_INTCAP1
p391
g391
tp392
a(VMCP23016_IOCON0
p393
g393
tp394
a(VMCP23016_IOCON1
p395
g395
tp396
a(VMCP23016_IODIR0
p397
g397
tp398
a(VMCP23016_IODIR1
p399
g399
tp400
a(VMCP23016_IPOL0
p401
g401
tp402
a(VMCP23016_IPOL1
p403
g403
tp404
a(VMCP23016_OLAT0
p405
g405
tp406
a(VMCP23016_OLAT1
p407
g407
tp408
a(VMCP23x08_DEFVAL
p409
g409
tp410
a(VMCP23x08_GPINTEN
p411
g411
tp412
a(VMCP23x08_GPIO
p413
g413
tp414
a(VMCP23x08_GPPU
p415
g415
tp416
a(VMCP23x08_INTCAP
p417
g417
tp418
a(VMCP23x08_INTCON
p419
g419
tp420
a(VMCP23x08_INTF
p421
g421
tp422
a(VMCP23x08_IOCON
p423
g423
tp424
a(VMCP23x08_IODIR
p425
g425
tp426
a(VMCP23x08_IPOL
p427
g427
tp428
a(VMCP23x08_OLAT
p429
g429
tp430
a(VMCP23x17_DEFVALA
p431
g431
tp432
a(VMCP23x17_DEFVALB
p433
g433
tp434
a(VMCP23x17_GPINTENA
p435
g435
tp436
a(VMCP23x17_GPINTENB
p437
g437
tp438
a(VMCP23x17_GPIOA
p439
g439
tp440
a(VMCP23x17_GPIOB
p441
g441
tp442
a(VMCP23x17_GPPUA
p443
g443
tp444
a(VMCP23x17_GPPUB
p445
g445
tp446
a(VMCP23x17_INTCAPA
p447
g447
tp448
a(VMCP23x17_INTCAPB
p449
g449
tp450
a(VMCP23x17_INTCONA
p451
g451
tp452
a(VMCP23x17_INTCONB
p453
g453
tp454
a(VMCP23x17_INTFA
p455
g455
tp456
a(VMCP23x17_INTFB
p457
g457
tp458
a(VMCP23x17_IOCON
p459
g459
tp460
a(VMCP23x17_IOCONB
p461
g461
tp462
a(VMCP23x17_IODIRA
p463
g463
tp464
a(VMCP23x17_IODIRB
p465
g465
tp466
a(VMCP23x17_IPOLA
p467
g467
tp468
a(VMCP23x17_IPOLB
p469
g469
tp470
a(VMCP23x17_OLATA
p471
g471
tp472
a(VMCP23x17_OLATB
p473
g473
tp474
a(VMCP3422_GAIN_1
p475
g475
tp476
a(VMCP3422_GAIN_2
p477
g477
tp478
a(VMCP3422_GAIN_4
p479
g479
tp480
a(VMCP3422_GAIN_8
p481
g481
tp482
a(VMCP3422_SR_15
p483
g483
tp484
a(VMCP3422_SR_240
p485
g485
tp486
a(VMCP3422_SR_3_75
p487
g487
tp488
a(VMCP3422_SR_60
p489
g489
tp490
a(VMCP_SPEED
p491
g491
tp492
a(VMD
p493
g493
tp494
a(VMSBFIRST
p495
g495
tp496
a(VOBJ
p497
g497
tp498
a(VOLATA
p499
g499
tp500
a(VOLATB
p501
g501
tp502
a(VOUTPUT
p503
g503
tp504
a(VPAGE_SIZE
p505
g505
tp506
a(VPIN_CONFIG_BIAS_BUS_HOLD
p507
g507
tp508
a(VPIN_CONFIG_BIAS_DISABLE
p509
g509
tp510
a(VPIN_CONFIG_BIAS_HIGH_IMPEDANCE
p511
g511
tp512
a(VPIN_CONFIG_BIAS_PULL_DOWN
p513
g513
tp514
a(VPIN_CONFIG_BIAS_PULL_PIN_DEFAULT
p515
g515
tp516
a(VPIN_CONFIG_BIAS_PULL_UP
p517
g517
tp518
a(VPIN_CONFIG_DRIVE_OPEN_DRAIN
p519
g519
tp520
a(VPIN_CONFIG_DRIVE_OPEN_SOURCE
p521
g521
tp522
a(VPIN_CONFIG_DRIVE_PUSH_PULL
p523
g523
tp524
a(VPIN_CONFIG_DRIVE_STRENGTH
p525
g525
tp526
a(VPIN_CONFIG_END
p527
g527
tp528
a(VPIN_CONFIG_INPUT_DEBOUNCE
p529
g529
tp530
a(VPIN_CONFIG_INPUT_ENABLE
p531
g531
tp532
a(VPIN_CONFIG_INPUT_SCHMITT
p533
g533
tp534
a(VPIN_CONFIG_INPUT_SCHMITT_ENABLE
p535
g535
tp536
a(VPIN_CONFIG_LOW_POWER_MODE
p537
g537
tp538
a(VPIN_CONFIG_OUTPUT
p539
g539
tp540
a(VPIN_CONFIG_POWER_SOURCE
p541
g541
tp542
a(VPIN_CONFIG_SLEW_RATE
p543
g543
tp544
a(VPI_ALPHA
p545
g545
tp546
a(VPI_GPIO_MASK
p547
g547
tp548
a(VPI_MAKER_EGOMAN
p549
g549
tp550
a(VPI_MAKER_EMBEST
p551
g551
tp552
a(VPI_MAKER_SONY
p553
g553
tp554
a(VPI_MAKER_UNKNOWN
p555
g555
tp556
a(VPI_MODEL_07
p557
g557
tp558
a(VPI_MODEL_2
p559
g559
tp560
a(VPI_MODEL_3
p561
g561
tp562
a(VPI_MODEL_A
p563
g563
tp564
a(VPI_MODEL_AP
p565
g565
tp566
a(VPI_MODEL_B
p567
g567
tp568
a(VPI_MODEL_BP
p569
g569
tp570
a(VPI_MODEL_CM
p571
g571
tp572
a(VPI_MODEL_CM3
p573
g573
tp574
a(VPI_MODEL_ZERO
p575
g575
tp576
a(VPI_THREAD
p577
g577
tp578
a(VPI_VERSION_1
p579
g579
tp580
a(VPI_VERSION_1_1
p581
g581
tp582
a(VPI_VERSION_1_2
p583
g583
tp584
a(VPI_VERSION_2
p585
g585
tp586
a(VPMUBASE_RK3399
p587
g587
tp588
a(VPMUDRVOFFSET_RK3399
p589
g589
tp590
a(VPMUMUXOFFSET_RK3399
p591
g591
tp592
a(VPREFIX
p593
g593
tp594
a(VPSEUDO_PINS
p595
g595
tp596
a(VPUD_DOWN
p597
g597
tp598
a(VPUD_OFF
p599
g599
tp600
a(VPUD_UP
p601
g601
tp602
a(VPULL_TYPE_IO_1V8_ONLY
p603
g603
tp604
a(VPULL_TYPE_IO_DEFAULT
p605
g605
tp606
a(VPULL_TYPE_MAX
p607
g607
tp608
a(VPULSE_TIME
p609
g609
tp610
a(VPWM0_DATA
p611
g611
tp612
a(VPWM0_ENABLE
p613
g613
tp614
a(VPWM0_MS_MODE
p615
g615
tp616
a(VPWM0_OFFSTATE
p617
g617
tp618
a(VPWM0_RANGE
p619
g619
tp620
a(VPWM0_REPEATFF
p621
g621
tp622
a(VPWM0_REVPOLAR
p623
g623
tp624
a(VPWM0_SERIAL
p625
g625
tp626
a(VPWM0_USEFIFO
p627
g627
tp628
a(VPWM1_DATA
p629
g629
tp630
a(VPWM1_ENABLE
p631
g631
tp632
a(VPWM1_MS_MODE
p633
g633
tp634
a(VPWM1_OFFSTATE
p635
g635
tp636
a(VPWM1_RANGE
p637
g637
tp638
a(VPWM1_REPEATFF
p639
g639
tp640
a(VPWM1_REVPOLAR
p641
g641
tp642
a(VPWM1_SERIAL
p643
g643
tp644
a(VPWM1_USEFIFO
p645
g645
tp646
a(VPWMCLK_CNTL
p647
g647
tp648
a(VPWMCLK_DIV
p649
g649
tp650
a(VPWM_CONTROL
p651
g651
tp652
a(VPWM_MODE_BAL
p653
g653
tp654
a(VPWM_MODE_MS
p655
g655
tp656
a(VPWM_OUTPUT
p657
g657
tp658
a(VPWM_STATUS
p659
g659
tp660
a(VPWM_TONE_OUTPUT
p661
g661
tp662
a(VQ
p663
g663
tp664
a(VRK3399FUNCTIONCONFIG
p665
g665
tp666
a(VRK3399_DRV_3BITS_PER_PIN
p667
g667
tp668
a(VRK3399_PULL_BANK_STRIDE
p669
g669
tp670
a(VRK3399_PULL_BITS_PER_PIN
p671
g671
tp672
a(VRK3399_PULL_GRF_OFFSET
p673
g673
tp674
a(VRK3399_PULL_PINS_PER_REG
p675
g675
tp676
a(VRK3399_PULL_PMU_OFFSET
p677
g677
tp678
a(VSHARED_NAME
p679
g679
tp680
a(VSOFT_PWM_OUTPUT
p681
g681
tp682
a(VSOFT_TONE_OUTPUT
p683
g683
tp684
a(VSRC
p685
g685
tp686
a(VSTATIC
p687
g687
tp688
a(VTIMER_CONTROL
p689
g689
tp690
a(VTIMER_COUNTER
p691
g691
tp692
a(VTIMER_IRQ_CLR
p693
g693
tp694
a(VTIMER_IRQ_MASK
p695
g695
tp696
a(VTIMER_IRQ_RAW
p697
g697
tp698
a(VTIMER_LOAD
p699
g699
tp700
a(VTIMER_PRE_DIV
p701
g701
tp702
a(VTIMER_RELOAD
p703
g703
tp704
a(VTIMER_VALUE
p705
g705
tp706
a(VTRUE
p707
g707
tp708
a(VUNU
p709
g709
tp710
a(VVB1
p711
g711
tp712
a(VVB2
p713
g713
tp714
a(VVERSION
p715
g715
tp716
a(VW1_POSTFIX
p717
g717
tp718
a(VW1_PREFIX
p719
g719
tp720
a(VWPI_ALMOST
p721
g721
tp722
a(VWPI_FATAL
p723
g723
tp724
a(VWPI_MODE_GPIO
p725
g725
tp726
a(VWPI_MODE_GPIO_SYS
p727
g727
tp728
a(VWPI_MODE_PHYS
p729
g729
tp730
a(VWPI_MODE_PIFACE
p731
g731
tp732
a(VWPI_MODE_PINS
p733
g733
tp734
a(VWPI_MODE_UNINITIALISED
p735
g735
tp736
a(V_RK3399FunctionConfig
p737
g737
tp738
a(V__WIRING_PI_H__
p739
g739
tp740
a(V__WIRWIRINGPI_FIREFLYRK3399_H__
p741
g741
tp742
a(Vads1115Setup
p743
g743
tp744
a(Valtitude
p745
g745
tp746
a(VanalogRead
p747
g747
tp748
a(VanalogReadDummy
p749
g749
tp750
a(VanalogWrite
p751
g751
tp752
a(VanalogWriteDummy
p753
g753
tp754
a(Vblock
p755
g755
tp756
a(Vbmp180ReadTempPress
p757
g757
tp758
a(Vbmp180Setup
p759
g759
tp760
a(Vbyte
p761
g761
tp762
a(Vc5
p763
g763
tp764
a(Vc6
p765
g765
tp766
a(VcPress
p767
g767
tp768
a(VcTemp
p769
g769
tp770
a(Vchecksum
p771
g771
tp772
a(Vclk
p773
g773
tp774
a(Vcommand
p775
g775
tp776
a(Vdata
p777
g777
tp778
a(Vdata0
p779
g779
tp780
a(Vdata1
p781
g781
tp782
a(Vdata2
p783
g783
tp784
a(Vdata3
p785
g785
tp786
a(VdataRates
p787
g787
tp788
a(Vdelay
p789
g789
tp790
a(VdelayMicroseconds
p791
g791
tp792
a(VdelayMicrosecondsHard
p793
g793
tp794
a(VdigitalRead
p795
g795
tp796
a(VdigitalReadByte
p797
g797
tp798
a(VdigitalReadByte2
p799
g799
tp800
a(VdigitalReadDummy
p801
g801
tp802
a(VdigitalWrite
p803
g803
tp804
a(VdigitalWriteByte
p805
g805
tp806
a(VdigitalWriteByte2
p807
g807
tp808
a(VdigitalWriteDummy
p809
g809
tp810
a(VdoExtensionAds1115
p811
g811
tp812
a(VdoExtensionBmp180
p813
g813
tp814
a(VdoExtensionDrcS
p815
g815
tp816
a(VdoExtensionDs18b20
p817
g817
tp818
a(VdoExtensionHtu21d
p819
g819
tp820
a(VdoExtensionMax31855
p821
g821
tp822
a(VdoExtensionMax5322
p823
g823
tp824
a(VdoExtensionMcp23008
p825
g825
tp826
a(VdoExtensionMcp23016
p827
g827
tp828
a(VdoExtensionMcp23017
p829
g829
tp830
a(VdoExtensionMcp23s08
p831
g831
tp832
a(VdoExtensionMcp23s17
p833
g833
tp834
a(VdoExtensionMcp3002
p835
g835
tp836
a(VdoExtensionMcp3004
p837
g837
tp838
a(VdoExtensionMcp3422
p839
g839
tp840
a(VdoExtensionMcp4802
p841
g841
tp842
a(VdoExtensionPcf8574
p843
g843
tp844
a(VdoExtensionPcf8591
p845
g845
tp846
a(VdoExtensionPseudoPins
p847
g847
tp848
a(VdoExtensionSn3218
p849
g849
tp850
a(VdoExtensionSr595
p851
g851
tp852
a(VdrcSetupSerial
p853
g853
tp854
a(Vds18b20Setup
p855
g855
tp856
a(VepochMicro
p857
g857
tp858
a(VepochMilli
p859
g859
tp860
a(VerrorMessage
p861
g861
tp862
a(VextensionFunctionStruct
p863
g863
tp864
a(VextensionFunctions
p865
g865
tp866
a(VextractInt
p867
g867
tp868
a(VextractStr
p869
g869
tp870
a(Vfd
p871
g871
tp872
a(Vfreqs
p873
g873
tp874
a(Vfunction
p875
g875
tp876
a(Vgains
p877
g877
tp878
a(VgetAlt
p879
g879
tp880
a(Vgpio
p881
g881
tp882
a(VgpioClockSet
p883
g883
tp884
a(VgpioFunctionConfig_RK3399
p885
g885
tp886
a(VgpioToClkCon
p887
g887
tp888
a(VgpioToClkDiv
p889
g889
tp890
a(VgpioToEDS
p891
g891
tp892
a(VgpioToFEN
p893
g893
tp894
a(VgpioToGPCLR
p895
g895
tp896
a(VgpioToGPFSEL
p897
g897
tp898
a(VgpioToGPLEV
p899
g899
tp900
a(VgpioToGPSET
p901
g901
tp902
a(VgpioToGpClkALT0
p903
g903
tp904
a(VgpioToPUDCLK
p905
g905
tp906
a(VgpioToPwmALT
p907
g907
tp908
a(VgpioToPwmPort
p909
g909
tp910
a(VgpioToREN
p911
g911
tp912
a(VgpioToShift
p913
g913
tp914
a(Vhtu21dSetup
p915
g915
tp916
a(Vi2c_smbus_access
p917
g917
tp918
a(Vi2c_smbus_data
p919
g919
tp920
a(Vi2c_smbus_ioctl_data
p921
g921
tp922
a(VinitialiseEpoch
p923
g923
tp924
a(VinterruptHandler
p925
g925
tp926
a(VisrFunctions
p927
g927
tp928
a(VloadWPiExtension
p929
g929
tp930
a(Vmarks
p931
g931
tp932
a(Vmax31855Setup
p933
g933
tp934
a(Vmax5322Setup
p935
g935
tp936
a(Vmc
p937
g937
tp938
a(Vmcp23008Setup
p939
g939
tp940
a(Vmcp23016Setup
p941
g941
tp942
a(Vmcp23017Setup
p943
g943
tp944
a(Vmcp23s08Setup
p945
g945
tp946
a(Vmcp23s17Setup
p947
g947
tp948
a(Vmcp3002Setup
p949
g949
tp950
a(Vmcp3004Setup
p951
g951
tp952
a(Vmcp3422Setup
p953
g953
tp954
a(Vmcp4802Setup
p955
g955
tp956
a(Vmd
p957
g957
tp958
a(Vmicros
p959
g959
tp960
a(Vmillis
p961
g961
tp962
a(VmuxFunction
p963
g963
tp964
a(VmyAnalogRead
p965
g965
tp966
a(VmyAnalogWrite
p967
g967
tp968
a(VmyDigitalRead
p969
g969
tp970
a(VmyDigitalWrite
p971
g971
tp972
a(VmyPinMode
p973
g973
tp974
a(VmyPullUpDnControl
p975
g975
tp976
a(VmyPwmWrite
p977
g977
tp978
a(Vname
p979
g979
tp980
a(VnewPin
p981
g981
tp982
a(Vnext
p983
g983
tp984
a(Vp0
p985
g985
tp986
a(Vp1
p987
g987
tp988
a(Vp2
p989
g989
tp990
a(Vpads
p991
g991
tp992
a(Vpcf8574Setup
p993
g993
tp994
a(Vpcf8591Setup
p995
g995
tp996
a(VphysPinToGpio
p997
g997
tp998
a(VphysToGpio
p999
g999
tp1000
a(VphysToGpioFireflyRK3399
p1001
g1001
tp1002
a(VphysToGpioR1
p1003
g1003
tp1004
a(VphysToGpioR2
p1005
g1005
tp1006
a(VpiBoardId
p1007
g1007
tp1008
a(VpiBoardRev
p1009
g1009
tp1010
a(VpiGpioBase
p1011
g1011
tp1012
a(VpiGpioLayout
p1013
g1013
tp1014
a(VpiGpioLayoutOops
p1015
g1015
tp1016
a(VpiHiPri
p1017
g1017
tp1018
a(VpiLock
p1019
g1019
tp1020
a(VpiMakerNames
p1021
g1021
tp1022
a(VpiMemorySize
p1023
g1023
tp1024
a(VpiModelNames
p1025
g1025
tp1026
a(VpiMutexes
p1027
g1027
tp1028
a(VpiRevisionNames
p1029
g1029
tp1030
a(VpiThreadCreate
p1031
g1031
tp1032
a(VpiUnlock
p1033
g1033
tp1034
a(VpinBase
p1035
g1035
tp1036
a(VpinEnableED01Pi
p1037
g1037
tp1038
a(VpinMap
p1039
g1039
tp1040
a(VpinMax
p1041
g1041
tp1042
a(VpinMode
p1043
g1043
tp1044
a(VpinModeAlt
p1045
g1045
tp1046
a(VpinModeDummy
p1047
g1047
tp1048
a(VpinMutex
p1049
g1049
tp1050
a(VpinPass
p1051
g1051
tp1052
a(VpinToGpio
p1053
g1053
tp1054
a(VpinToGpioFireflyRK3399
p1055
g1055
tp1056
a(VpinToGpioR1
p1057
g1057
tp1058
a(VpinToGpioR2
p1059
g1059
tp1060
a(Vpin_config_param
p1061
g1061
tp1062
a(Vpins
p1063
g1063
tp1064
a(VpinsFunction
p1065
g1065
tp1066
a(VpseudoPinsSetup
p1067
g1067
tp1068
a(VpullUpDnControl
p1069
g1069
tp1070
a(VpullUpDnControlDummy
p1071
g1071
tp1072
a(VpulseWidth
p1073
g1073
tp1074
a(Vpwm
p1075
g1075
tp1076
a(VpwmSetClock
p1077
g1077
tp1078
a(VpwmSetMode
p1079
g1079
tp1080
a(VpwmSetRange
p1081
g1081
tp1082
a(VpwmToneWrite
p1083
g1083
tp1084
a(VpwmWrite
p1085
g1085
tp1086
a(VpwmWriteDummy
p1087
g1087
tp1088
a(Vrange
p1089
g1089
tp1090
a(Vread16
p1091
g1091
tp1092
a(VreadByte
p1093
g1093
tp1094
a(Vread_write
p1095
g1095
tp1096
a(Vrk3399_bank_pull_type
p1097
g1097
tp1098
a(Vrk3399_calc_drv_reg_and_bit
p1099
g1099
tp1100
a(Vrk3399_calc_pull_reg_and_bit
p1101
g1101
tp1102
a(Vrk3399_checkGpioFunctionSupport
p1103
g1103
tp1104
a(Vrk3399_digitalRead
p1105
g1105
tp1106
a(Vrk3399_digitalWrite
p1107
g1107
tp1108
a(Vrk3399_gpioRegBase
p1109
g1109
tp1110
a(Vrk3399_gpioRegMap
p1111
g1111
tp1112
a(Vrk3399_gpio_enable_function
p1113
g1113
tp1114
a(Vrk3399_gpio_set_direction
p1115
g1115
tp1116
a(Vrk3399_gpio_set_gpiomode
p1117
g1117
tp1118
a(Vrk3399_grfRegBase
p1119
g1119
tp1120
a(Vrk3399_initRegMap
p1121
g1121
tp1122
a(Vrk3399_pinMode
p1123
g1123
tp1124
a(Vrk3399_pmugrfRegBase
p1125
g1125
tp1126
a(Vrk3399_pullUpDnControl
p1127
g1127
tp1128
a(Vrk3399_pull_list
p1129
g1129
tp1130
a(Vrk3399_updateMuxRegBit
p1131
g1131
tp1132
a(Vrockchip_pin_drv_type
p1133
g1133
tp1134
a(Vrockchip_pin_pull_type
p1135
g1135
tp1136
a(VserialClose
p1137
g1137
tp1138
a(VserialDataAvail
p1139
g1139
tp1140
a(VserialFlush
p1141
g1141
tp1142
a(VserialGetchar
p1143
g1143
tp1144
a(VserialOpen
p1145
g1145
tp1146
a(VserialPrintf
p1147
g1147
tp1148
a(VserialPutchar
p1149
g1149
tp1150
a(VserialPuts
p1151
g1151
tp1152
a(VsetPadDrive
p1153
g1153
tp1154
a(VshiftIn
p1155
g1155
tp1156
a(VshiftOut
p1157
g1157
tp1158
a(Vsize
p1159
g1159
tp1160
a(Vsn3218Setup
p1161
g1161
tp1162
a(VsoftPwmCreate
p1163
g1163
tp1164
a(VsoftPwmStop
p1165
g1165
tp1166
a(VsoftPwmThread
p1167
g1167
tp1168
a(VsoftPwmWrite
p1169
g1169
tp1170
a(VsoftServoSetup
p1171
g1171
tp1172
a(VsoftServoWrite
p1173
g1173
tp1174
a(VsoftToneCreate
p1175
g1175
tp1176
a(VsoftToneStop
p1177
g1177
tp1178
a(VsoftToneWrite
p1179
g1179
tp1180
a(VspiBPW
p1181
g1181
tp1182
a(VspiDelay
p1183
g1183
tp1184
a(VspiDev0
p1185
g1185
tp1186
a(VspiDev1
p1187
g1187
tp1188
a(VspiFds
p1189
g1189
tp1190
a(VspiSpeeds
p1191
g1191
tp1192
a(Vsr595Setup
p1193
g1193
tp1194
a(VsysFds
p1195
g1195
tp1196
a(Vthreads
p1197
g1197
tp1198
a(Vtimer
p1199
g1199
tp1200
a(VtimerIrqRaw
p1201
g1201
tp1202
a(VverbError
p1203
g1203
tp1204
a(Vverbose
p1205
g1205
tp1206
a(VwaitForConversion
p1207
g1207
tp1208
a(VwaitForInterrupt
p1209
g1209
tp1210
a(VwiringPiDebug
p1211
g1211
tp1212
a(VwiringPiFailure
p1213
g1213
tp1214
a(VwiringPiFindNode
p1215
g1215
tp1216
a(VwiringPiI2CRead
p1217
g1217
tp1218
a(VwiringPiI2CReadReg16
p1219
g1219
tp1220
a(VwiringPiI2CReadReg8
p1221
g1221
tp1222
a(VwiringPiI2CSetup
p1223
g1223
tp1224
a(VwiringPiI2CSetupInterface
p1225
g1225
tp1226
a(VwiringPiI2CWrite
p1227
g1227
tp1228
a(VwiringPiI2CWriteReg16
p1229
g1229
tp1230
a(VwiringPiI2CWriteReg8
p1231
g1231
tp1232
a(VwiringPiISR
p1233
g1233
tp1234
a(VwiringPiMode
p1235
g1235
tp1236
a(VwiringPiNewNode
p1237
g1237
tp1238
a(VwiringPiNodeStruct
p1239
g1239
tp1240
a(VwiringPiNodes
p1241
g1241
tp1242
a(VwiringPiReturnCodes
p1243
g1243
tp1244
a(VwiringPiSPIDataRW
p1245
g1245
tp1246
a(VwiringPiSPIGetFd
p1247
g1247
tp1248
a(VwiringPiSPISetup
p1249
g1249
tp1250
a(VwiringPiSPISetupMode
p1251
g1251
tp1252
a(VwiringPiSetup
p1253
g1253
tp1254
a(VwiringPiSetupGpio
p1255
g1255
tp1256
a(VwiringPiSetupPhys
p1257
g1257
tp1258
a(VwiringPiSetupSys
p1259
g1259
tp1260
a(VwiringPiTryGpioMem
p1261
g1261
tp1262
a(VwiringPiVersion
p1263
g1263
tp1264
a(Vword
p1265
g1265
tp1266
a(VwpiPinToGpio
p1267
g1267
tp1268
a(VwriteByte
p1269
g1269
tp1270
a(Vx0
p1271
g1271
tp1272
a(Vx1
p1273
g1273
tp1274
a(Vx2
p1275
g1275
tp1276
a(Vyy0
p1277
g1277
tp1278
a(Vyy1
p1279
g1279
tp1280
a(Vyy2
p1281
g1281
tp1282
a.